target datalayout = "e-m:e-p270:32:32-p271:32:32-p272:64:64-i64:64-i128:128-f80:128-n8:16:32:64-S128"
target triple = "x86_64-pc-linux-gnu"

%struct.portalhashent = type { [64 x i8], ptr }
%struct.PortalData = type { ptr, ptr, ptr, ptr, ptr, i32, i32, i32, ptr, i32, %struct.QueryCompletion, ptr, ptr, ptr, ptr, i32, i32, i32, i8, i8, ptr, ptr, ptr, ptr, ptr, ptr, ptr, i8, i8, i64, i64, i8 }
%struct.QueryCompletion = type { i32, i64 }
%struct.HASH_SEQ_STATUS = type { ptr, i32, ptr, i8, i32 }

@PortalHashTable = internal global ptr null, align 8

; Function Attrs: nounwind uwtable
define dso_local void @AtSubCommit_Portals(i32 noundef %0, i32 noundef %1, i32 noundef %2, ptr noundef %3) #0 {
  %5 = alloca i32, align 4
  %6 = alloca i32, align 4
  %7 = alloca i32, align 4
  %8 = alloca ptr, align 8
  %9 = alloca %struct.HASH_SEQ_STATUS, align 8
  %10 = alloca ptr, align 8
  %11 = alloca ptr, align 8
  store i32 %0, ptr %5, align 4
  store i32 %1, ptr %6, align 4
  store i32 %2, ptr %7, align 4
  store ptr %3, ptr %8, align 8
  call void @llvm.lifetime.start.p0(i64 32, ptr %9) #6
  call void @llvm.lifetime.start.p0(i64 8, ptr %10) #6
  %12 = load ptr, ptr @PortalHashTable, align 8
  call void @hash_seq_init(ptr noundef %9, ptr noundef %12)
  br label %13

13:                                               ; preds = %52, %4
  %14 = call ptr @hash_seq_search(ptr noundef %9)
  store ptr %14, ptr %10, align 8
  %15 = icmp ne ptr %14, null
  br i1 %15, label %16, label %53

16:                                               ; preds = %13
  call void @llvm.lifetime.start.p0(i64 8, ptr %11) #6
  %17 = load ptr, ptr %10, align 8
  %18 = getelementptr inbounds nuw %struct.portalhashent, ptr %17, i32 0, i32 1
  %19 = load ptr, ptr %18, align 8
  store ptr %19, ptr %11, align 8
  %20 = load ptr, ptr %11, align 8
  %21 = getelementptr inbounds nuw %struct.PortalData, ptr %20, i32 0, i32 5
  %22 = load i32, ptr %21, align 8
  %23 = load i32, ptr %5, align 4
  %24 = icmp eq i32 %22, %23
  br i1 %24, label %25, label %42

25:                                               ; preds = %16
  %26 = load i32, ptr %6, align 4
  %27 = load ptr, ptr %11, align 8
  %28 = getelementptr inbounds nuw %struct.PortalData, ptr %27, i32 0, i32 5
  store i32 %26, ptr %28, align 8
  %29 = load i32, ptr %7, align 4
  %30 = load ptr, ptr %11, align 8
  %31 = getelementptr inbounds nuw %struct.PortalData, ptr %30, i32 0, i32 7
  store i32 %29, ptr %31, align 8
  %32 = load ptr, ptr %11, align 8
  %33 = getelementptr inbounds nuw %struct.PortalData, ptr %32, i32 0, i32 3
  %34 = load ptr, ptr %33, align 8
  %35 = icmp ne ptr %34, null
  br i1 %35, label %36, label %41

36:                                               ; preds = %25
  %37 = load ptr, ptr %11, align 8
  %38 = getelementptr inbounds nuw %struct.PortalData, ptr %37, i32 0, i32 3
  %39 = load ptr, ptr %38, align 8
  %40 = load ptr, ptr %8, align 8
  call void @ResourceOwnerNewParent(ptr noundef %39, ptr noundef %40)
  br label %41

41:                                               ; preds = %36, %25
  br label %42

42:                                               ; preds = %41, %16
  %43 = load ptr, ptr %11, align 8
  %44 = getelementptr inbounds nuw %struct.PortalData, ptr %43, i32 0, i32 6
  %45 = load i32, ptr %44, align 4
  %46 = load i32, ptr %5, align 4
  %47 = icmp eq i32 %45, %46
  br i1 %47, label %48, label %52

48:                                               ; preds = %42
  %49 = load i32, ptr %6, align 4
  %50 = load ptr, ptr %11, align 8
  %51 = getelementptr inbounds nuw %struct.PortalData, ptr %50, i32 0, i32 6
  store i32 %49, ptr %51, align 4
  br label %52

52:                                               ; preds = %48, %42
  call void @llvm.lifetime.end.p0(i64 8, ptr %11) #6
  br label %13, !llvm.loop !13

53:                                               ; preds = %13
  call void @llvm.lifetime.end.p0(i64 8, ptr %10) #6
  call void @llvm.lifetime.end.p0(i64 32, ptr %9) #6
  ret void
}