; Function Attrs: nounwind uwtable
define dso_local void @AtSubCommit_Portals(i32 noundef %0, i32 noundef %1, i32 noundef %2, ptr noundef %3) local_unnamed_addr #0 {
  %5 = alloca %struct.HASH_SEQ_STATUS, align 8
  call void @llvm.lifetime.start.p0(i64 32, ptr nonnull %5) #8
  %6 = load ptr, ptr @PortalHashTable, align 8
  call void @hash_seq_init(ptr noundef nonnull %5, ptr noundef %6) #8
  %7 = call ptr @hash_seq_search(ptr noundef nonnull %5) #8
  %.not15 = icmp eq ptr %7, null
  br i1 %.not15, label %._crit_edge, label %.lr.ph

.lr.ph:                                           ; preds = %4, %24
  %8 = phi ptr [ %25, %24 ], [ %7, %4 ]
  %9 = getelementptr inbounds nuw i8, ptr %8, i64 64
  %10 = load ptr, ptr %9, align 8
  %11 = getelementptr inbounds nuw i8, ptr %10, i64 40
  %12 = load i32, ptr %11, align 8
  %13 = icmp eq i32 %12, %0
  br i1 %13, label %14, label %19

14:                                               ; preds = %.lr.ph
  store i32 %1, ptr %11, align 8
  %15 = getelementptr inbounds nuw i8, ptr %10, i64 48
  store i32 %2, ptr %15, align 8
  %16 = getelementptr inbounds nuw i8, ptr %10, i64 24
  %17 = load ptr, ptr %16, align 8
  %.not14 = icmp eq ptr %17, null
  br i1 %.not14, label %19, label %18

18:                                               ; preds = %14
  call void @ResourceOwnerNewParent(ptr noundef nonnull %17, ptr noundef %3) #8
  br label %19

19:                                               ; preds = %14, %18, %.lr.ph
  %20 = getelementptr inbounds nuw i8, ptr %10, i64 44
  %21 = load i32, ptr %20, align 4
  %22 = icmp eq i32 %21, %0
  br i1 %22, label %23, label %24

23:                                               ; preds = %19
  store i32 %1, ptr %20, align 4
  br label %24

24:                                               ; preds = %23, %19
  %25 = call ptr @hash_seq_search(ptr noundef nonnull %5) #8
  %.not = icmp eq ptr %25, null
  br i1 %.not, label %._crit_edge, label %.lr.ph, !llvm.loop !12

._crit_edge:                                      ; preds = %24, %4
  call void @llvm.lifetime.end.p0(i64 32, ptr nonnull %5) #8
  ret void
}